target datalayout = "e-m:e-p270:32:32-p271:32:32-p272:64:64-i64:64-i128:128-f80:128-n8:16:32:64-S128"
target triple = "x86_64-unknown-linux-gnu"

%class.anon = type { ptr, ptr, ptr, ptr }
%"class.httplib::detail::SocketStream" = type { %"class.httplib::Stream", i32, i64, i64, i64, i64, %"class.std::vector.13", i64, i64 }
%"class.httplib::Stream" = type { ptr }
%"class.std::vector.13" = type { %"struct.std::_Vector_base.14" }
%"struct.std::_Vector_base.14" = type { %"struct.std::_Vector_base<char, std::allocator<char>>::_Vector_impl" }
%"struct.std::_Vector_base<char, std::allocator<char>>::_Vector_impl" = type { %"struct.std::_Vector_base<char, std::allocator<char>>::_Vector_impl_data" }
%"struct.std::_Vector_base<char, std::allocator<char>>::_Vector_impl_data" = type { ptr, ptr, ptr }

; Function Attrs: mustprogress uwtable
define internal noundef i64 @"_ZZN7httplib6detail11read_socketEiPvmiENK3$_0clEv"(ptr noundef nonnull align 8 dereferenceable(32) %this) #6 align 2 {
entry:
  %this.addr = alloca ptr, align 8
  store ptr %this, ptr %this.addr, align 8
  %this1 = load ptr, ptr %this.addr, align 8
  %0 = getelementptr inbounds %class.anon, ptr %this1, i32 0, i32 0
  %1 = load ptr, ptr %0, align 8
  %2 = load i32, ptr %1, align 4
  %3 = getelementptr inbounds %class.anon, ptr %this1, i32 0, i32 1
  %4 = load ptr, ptr %3, align 8
  %5 = load ptr, ptr %4, align 8
  %6 = getelementptr inbounds %class.anon, ptr %this1, i32 0, i32 2
  %7 = load ptr, ptr %6, align 8
  %8 = load i64, ptr %7, align 8
  %9 = getelementptr inbounds %class.anon, ptr %this1, i32 0, i32 3
  %10 = load ptr, ptr %9, align 8
  %11 = load i32, ptr %10, align 4
  %call = call i64 @recv(i32 noundef %2, ptr noundef %5, i64 noundef %8, i32 noundef %11)
  ret i64 %call
}

; Function Attrs: mustprogress uwtable
define internal noundef i64 @"_ZN7httplib6detail12handle_EINTRIZNS0_11read_socketEiPvmiE3$_0EElT_"(ptr noundef byval(%class.anon) align 8 %fn) #6 {
entry:
  %res = alloca i64, align 8
  store i64 0, ptr %res, align 8
  br label %while.body

while.body:                                       ; preds = %if.then, %entry
  %call = call noundef i64 @"_ZZN7httplib6detail11read_socketEiPvmiENK3$_0clEv"(ptr noundef nonnull align 8 dereferenceable(32) %fn)
  store i64 %call, ptr %res, align 8
  %0 = load i64, ptr %res, align 8
  %cmp = icmp slt i64 %0, 0
  br i1 %cmp, label %land.lhs.true, label %if.end

land.lhs.true:                                    ; preds = %while.body
  %call1 = call ptr @__errno_location() #23
  %1 = load i32, ptr %call1, align 4
  %cmp2 = icmp eq i32 %1, 4
  br i1 %cmp2, label %if.then, label %if.end

if.then:                                          ; preds = %land.lhs.true
  br label %while.body, !llvm.loop !20

if.end:                                           ; preds = %land.lhs.true, %while.body
  br label %while.end

while.end:                                        ; preds = %if.end
  %2 = load i64, ptr %res, align 8
  ret i64 %2
}

; Function Attrs: mustprogress nounwind uwtable
define linkonce_odr noundef ptr @_ZNKSt6vectorIcSaIcEE11_M_data_ptrIcEEPT_S4_(ptr noundef nonnull align 8 dereferenceable(24) %this, ptr noundef %__ptr) #4 comdat align 2 {
entry:
  %this.addr = alloca ptr, align 8
  %__ptr.addr = alloca ptr, align 8
  store ptr %this, ptr %this.addr, align 8
  store ptr %__ptr, ptr %__ptr.addr, align 8
  %0 = load ptr, ptr %__ptr.addr, align 8
  ret ptr %0
}

; Function Attrs: mustprogress uwtable
define noundef i64 @_ZN7httplib6detail11read_socketEiPvmi(i32 noundef %sock, ptr noundef %ptr, i64 noundef %size, i32 noundef %flags) #6 {
entry:
  %sock.addr = alloca i32, align 4
  %ptr.addr = alloca ptr, align 8
  %size.addr = alloca i64, align 8
  %flags.addr = alloca i32, align 4
  %agg.tmp = alloca %class.anon, align 8
  store i32 %sock, ptr %sock.addr, align 4
  store ptr %ptr, ptr %ptr.addr, align 8
  store i64 %size, ptr %size.addr, align 8
  store i32 %flags, ptr %flags.addr, align 4
  %0 = getelementptr inbounds %class.anon, ptr %agg.tmp, i32 0, i32 0
  store ptr %sock.addr, ptr %0, align 8
  %1 = getelementptr inbounds %class.anon, ptr %agg.tmp, i32 0, i32 1
  store ptr %ptr.addr, ptr %1, align 8
  %2 = getelementptr inbounds %class.anon, ptr %agg.tmp, i32 0, i32 2
  store ptr %size.addr, ptr %2, align 8
  %3 = getelementptr inbounds %class.anon, ptr %agg.tmp, i32 0, i32 3
  store ptr %flags.addr, ptr %3, align 8
  %call = call noundef i64 @"_ZN7httplib6detail12handle_EINTRIZNS0_11read_socketEiPvmiE3$_0EElT_"(ptr noundef byval(%class.anon) align 8 %agg.tmp)
  ret i64 %call
}

; Function Attrs: mustprogress nounwind uwtable
define linkonce_odr noundef ptr @_ZNSt6vectorIcSaIcEE4dataEv(ptr noundef nonnull align 8 dereferenceable(24) %this) #4 comdat align 2 {
entry:
  %this.addr = alloca ptr, align 8
  store ptr %this, ptr %this.addr, align 8
  %this1 = load ptr, ptr %this.addr, align 8
  %_M_impl = getelementptr inbounds %"struct.std::_Vector_base.14", ptr %this1, i32 0, i32 0
  %_M_start = getelementptr inbounds %"struct.std::_Vector_base<char, std::allocator<char>>::_Vector_impl_data", ptr %_M_impl, i32 0, i32 0
  %0 = load ptr, ptr %_M_start, align 8
  %call = call noundef ptr @_ZNKSt6vectorIcSaIcEE11_M_data_ptrIcEEPT_S4_(ptr noundef nonnull align 8 dereferenceable(24) %this1, ptr noundef %0) #3
  ret ptr %call
}

; Function Attrs: mustprogress nounwind uwtable
define linkonce_odr noundef nonnull align 8 dereferenceable(8) ptr @_ZSt3minImERKT_S2_S2_(ptr noundef nonnull align 8 dereferenceable(8) %__a, ptr noundef nonnull align 8 dereferenceable(8) %__b) #4 comdat {
entry:
  %retval = alloca ptr, align 8
  %__a.addr = alloca ptr, align 8
  %__b.addr = alloca ptr, align 8
  store ptr %__a, ptr %__a.addr, align 8
  store ptr %__b, ptr %__b.addr, align 8
  %0 = load ptr, ptr %__b.addr, align 8
  %1 = load i64, ptr %0, align 8
  %2 = load ptr, ptr %__a.addr, align 8
  %3 = load i64, ptr %2, align 8
  %cmp = icmp ult i64 %1, %3
  br i1 %cmp, label %if.then, label %if.end

if.then:                                          ; preds = %entry
  %4 = load ptr, ptr %__b.addr, align 8
  store ptr %4, ptr %retval, align 8
  br label %return

if.end:                                           ; preds = %entry
  %5 = load ptr, ptr %__a.addr, align 8
  store ptr %5, ptr %retval, align 8
  br label %return

return:                                           ; preds = %if.end, %if.then
  %6 = load ptr, ptr %retval, align 8
  ret ptr %6
}

; Function Attrs: mustprogress nounwind uwtable
define linkonce_odr noundef i64 @_ZNSt14numeric_limitsIlE3maxEv() #4 comdat align 2 {
entry:
  ret i64 9223372036854775807
}

; Function Attrs: mustprogress uwtable
define noundef i64 @_ZN7httplib6detail12SocketStream4readEPcm(ptr noundef nonnull align 8 dereferenceable(88) %this, ptr noundef %ptr, i64 noundef %size) unnamed_addr #6 align 2 {
entry:
  %retval = alloca i64, align 8
  %this.addr = alloca ptr, align 8
  %ptr.addr = alloca ptr, align 8
  %size.addr = alloca i64, align 8
  %ref.tmp = alloca i64, align 8
  %remaining_size = alloca i64, align 8
  %n = alloca i64, align 8
  store ptr %this, ptr %this.addr, align 8
  store ptr %ptr, ptr %ptr.addr, align 8
  store i64 %size, ptr %size.addr, align 8
  %this1 = load ptr, ptr %this.addr, align 8
  %call = call noundef i64 @_ZNSt14numeric_limitsIlE3maxEv() #3
  store i64 %call, ptr %ref.tmp, align 8
  %call2 = call noundef nonnull align 8 dereferenceable(8) ptr @_ZSt3minImERKT_S2_S2_(ptr noundef nonnull align 8 dereferenceable(8) %size.addr, ptr noundef nonnull align 8 dereferenceable(8) %ref.tmp)
  %0 = load i64, ptr %call2, align 8
  store i64 %0, ptr %size.addr, align 8
  %read_buff_off_ = getelementptr inbounds %"class.httplib::detail::SocketStream", ptr %this1, i32 0, i32 7
  %1 = load i64, ptr %read_buff_off_, align 8
  %read_buff_content_size_ = getelementptr inbounds %"class.httplib::detail::SocketStream", ptr %this1, i32 0, i32 8
  %2 = load i64, ptr %read_buff_content_size_, align 8
  %cmp = icmp ult i64 %1, %2
  br i1 %cmp, label %if.then, label %if.end

if.then:                                          ; preds = %entry
  %read_buff_content_size_3 = getelementptr inbounds %"class.httplib::detail::SocketStream", ptr %this1, i32 0, i32 8
  %3 = load i64, ptr %read_buff_content_size_3, align 8
  %read_buff_off_4 = getelementptr inbounds %"class.httplib::detail::SocketStream", ptr %this1, i32 0, i32 7
  %4 = load i64, ptr %read_buff_off_4, align 8
  %sub = sub i64 %3, %4
  store i64 %sub, ptr %remaining_size, align 8
  %5 = load i64, ptr %size.addr, align 8
  %6 = load i64, ptr %remaining_size, align 8
  %cmp5 = icmp ule i64 %5, %6
  br i1 %cmp5, label %if.then6, label %if.else

if.then6:                                         ; preds = %if.then
  %7 = load ptr, ptr %ptr.addr, align 8
  %read_buff_ = getelementptr inbounds %"class.httplib::detail::SocketStream", ptr %this1, i32 0, i32 6
  %call7 = call noundef ptr @_ZNSt6vectorIcSaIcEE4dataEv(ptr noundef nonnull align 8 dereferenceable(24) %read_buff_) #3
  %read_buff_off_8 = getelementptr inbounds %"class.httplib::detail::SocketStream", ptr %this1, i32 0, i32 7
  %8 = load i64, ptr %read_buff_off_8, align 8
  %add.ptr = getelementptr inbounds i8, ptr %call7, i64 %8
  %9 = load i64, ptr %size.addr, align 8
  call void @llvm.memcpy.p0.p0.i64(ptr align 1 %7, ptr align 1 %add.ptr, i64 %9, i1 false)
  %10 = load i64, ptr %size.addr, align 8
  %read_buff_off_9 = getelementptr inbounds %"class.httplib::detail::SocketStream", ptr %this1, i32 0, i32 7
  %11 = load i64, ptr %read_buff_off_9, align 8
  %add = add i64 %11, %10
  store i64 %add, ptr %read_buff_off_9, align 8
  %12 = load i64, ptr %size.addr, align 8
  store i64 %12, ptr %retval, align 8
  br label %return

if.else:                                          ; preds = %if.then
  %13 = load ptr, ptr %ptr.addr, align 8
  %read_buff_10 = getelementptr inbounds %"class.httplib::detail::SocketStream", ptr %this1, i32 0, i32 6
  %call11 = call noundef ptr @_ZNSt6vectorIcSaIcEE4dataEv(ptr noundef nonnull align 8 dereferenceable(24) %read_buff_10) #3
  %read_buff_off_12 = getelementptr inbounds %"class.httplib::detail::SocketStream", ptr %this1, i32 0, i32 7
  %14 = load i64, ptr %read_buff_off_12, align 8
  %add.ptr13 = getelementptr inbounds i8, ptr %call11, i64 %14
  %15 = load i64, ptr %remaining_size, align 8
  call void @llvm.memcpy.p0.p0.i64(ptr align 1 %13, ptr align 1 %add.ptr13, i64 %15, i1 false)
  %16 = load i64, ptr %remaining_size, align 8
  %read_buff_off_14 = getelementptr inbounds %"class.httplib::detail::SocketStream", ptr %this1, i32 0, i32 7
  %17 = load i64, ptr %read_buff_off_14, align 8
  %add15 = add i64 %17, %16
  store i64 %add15, ptr %read_buff_off_14, align 8
  %18 = load i64, ptr %remaining_size, align 8
  store i64 %18, ptr %retval, align 8
  br label %return

if.end:                                           ; preds = %entry
  %vtable = load ptr, ptr %this1, align 8
  %vfn = getelementptr inbounds ptr, ptr %vtable, i64 2
  %19 = load ptr, ptr %vfn, align 8
  %call16 = call noundef zeroext i1 %19(ptr noundef nonnull align 8 dereferenceable(88) %this1)
  br i1 %call16, label %if.end18, label %if.then17

if.then17:                                        ; preds = %if.end
  store i64 -1, ptr %retval, align 8
  br label %return

if.end18:                                         ; preds = %if.end
  %read_buff_off_19 = getelementptr inbounds %"class.httplib::detail::SocketStream", ptr %this1, i32 0, i32 7
  store i64 0, ptr %read_buff_off_19, align 8
  %read_buff_content_size_20 = getelementptr inbounds %"class.httplib::detail::SocketStream", ptr %this1, i32 0, i32 8
  store i64 0, ptr %read_buff_content_size_20, align 8
  %20 = load i64, ptr %size.addr, align 8
  %cmp21 = icmp ult i64 %20, 4096
  br i1 %cmp21, label %if.then22, label %if.else38

if.then22:                                        ; preds = %if.end18
  %sock_ = getelementptr inbounds %"class.httplib::detail::SocketStream", ptr %this1, i32 0, i32 1
  %21 = load i32, ptr %sock_, align 8
  %read_buff_23 = getelementptr inbounds %"class.httplib::detail::SocketStream", ptr %this1, i32 0, i32 6
  %call24 = call noundef ptr @_ZNSt6vectorIcSaIcEE4dataEv(ptr noundef nonnull align 8 dereferenceable(24) %read_buff_23) #3
  %call25 = call noundef i64 @_ZN7httplib6detail11read_socketEiPvmi(i32 noundef %21, ptr noundef %call24, i64 noundef 4096, i32 noundef 0)
  store i64 %call25, ptr %n, align 8
  %22 = load i64, ptr %n, align 8
  %cmp26 = icmp sle i64 %22, 0
  br i1 %cmp26, label %if.then27, label %if.else28

if.then27:                                        ; preds = %if.then22
  %23 = load i64, ptr %n, align 8
  store i64 %23, ptr %retval, align 8
  br label %return

if.else28:                                        ; preds = %if.then22
  %24 = load i64, ptr %n, align 8
  %25 = load i64, ptr %size.addr, align 8
  %cmp29 = icmp sle i64 %24, %25
  br i1 %cmp29, label %if.then30, label %if.else33

if.then30:                                        ; preds = %if.else28
  %26 = load ptr, ptr %ptr.addr, align 8
  %read_buff_31 = getelementptr inbounds %"class.httplib::detail::SocketStream", ptr %this1, i32 0, i32 6
  %call32 = call noundef ptr @_ZNSt6vectorIcSaIcEE4dataEv(ptr noundef nonnull align 8 dereferenceable(24) %read_buff_31) #3
  %27 = load i64, ptr %n, align 8
  call void @llvm.memcpy.p0.p0.i64(ptr align 1 %26, ptr align 1 %call32, i64 %27, i1 false)
  %28 = load i64, ptr %n, align 8
  store i64 %28, ptr %retval, align 8
  br label %return

if.else33:                                        ; preds = %if.else28
  %29 = load ptr, ptr %ptr.addr, align 8
  %read_buff_34 = getelementptr inbounds %"class.httplib::detail::SocketStream", ptr %this1, i32 0, i32 6
  %call35 = call noundef ptr @_ZNSt6vectorIcSaIcEE4dataEv(ptr noundef nonnull align 8 dereferenceable(24) %read_buff_34) #3
  %30 = load i64, ptr %size.addr, align 8
  call void @llvm.memcpy.p0.p0.i64(ptr align 1 %29, ptr align 1 %call35, i64 %30, i1 false)
  %31 = load i64, ptr %size.addr, align 8
  %read_buff_off_36 = getelementptr inbounds %"class.httplib::detail::SocketStream", ptr %this1, i32 0, i32 7
  store i64 %31, ptr %read_buff_off_36, align 8
  %32 = load i64, ptr %n, align 8
  %read_buff_content_size_37 = getelementptr inbounds %"class.httplib::detail::SocketStream", ptr %this1, i32 0, i32 8
  store i64 %32, ptr %read_buff_content_size_37, align 8
  %33 = load i64, ptr %size.addr, align 8
  store i64 %33, ptr %retval, align 8
  br label %return

if.else38:                                        ; preds = %if.end18
  %sock_39 = getelementptr inbounds %"class.httplib::detail::SocketStream", ptr %this1, i32 0, i32 1
  %34 = load i32, ptr %sock_39, align 8
  %35 = load ptr, ptr %ptr.addr, align 8
  %36 = load i64, ptr %size.addr, align 8
  %call40 = call noundef i64 @_ZN7httplib6detail11read_socketEiPvmi(i32 noundef %34, ptr noundef %35, i64 noundef %36, i32 noundef 0)
  store i64 %call40, ptr %retval, align 8
  br label %return

return:                                           ; preds = %if.else38, %if.else33, %if.then30, %if.then27, %if.then17, %if.else, %if.then6
  %37 = load i64, ptr %retval, align 8
  ret i64 %37
}