; Function Attrs: mustprogress uwtable
define noundef i64 @_ZN7httplib6detail12SocketStream4readEPcm(ptr noundef nonnull align 8 dereferenceable(88) %this, ptr noundef %ptr, i64 noundef %size) unnamed_addr #5 align 2 {
entry:
  %.sroa.speculated = tail call i64 @llvm.umin.i64(i64 %size, i64 9223372036854775807)
  %read_buff_off_ = getelementptr inbounds i8, ptr %this, i64 72
  %0 = load i64, ptr %read_buff_off_, align 8
  %read_buff_content_size_ = getelementptr inbounds i8, ptr %this, i64 80
  %1 = load i64, ptr %read_buff_content_size_, align 8
  %cmp = icmp ult i64 %0, %1
  br i1 %cmp, label %if.then, label %if.end

if.then:                                          ; preds = %entry
  %sub = sub i64 %1, %0
  %cmp5.not = icmp ugt i64 %.sroa.speculated, %sub
  %read_buff_10 = getelementptr inbounds i8, ptr %this, i64 48
  %2 = load ptr, ptr %read_buff_10, align 8
  %add.ptr13 = getelementptr inbounds i8, ptr %2, i64 %0
  br i1 %cmp5.not, label %if.else, label %if.then6

if.then6:                                         ; preds = %if.then
  tail call void @llvm.memcpy.p0.p0.i64(ptr align 1 %ptr, ptr align 1 %add.ptr13, i64 %.sroa.speculated, i1 false)
  %3 = load i64, ptr %read_buff_off_, align 8
  %add = add i64 %3, %.sroa.speculated
  store i64 %add, ptr %read_buff_off_, align 8
  br label %return

if.else:                                          ; preds = %if.then
  tail call void @llvm.memcpy.p0.p0.i64(ptr align 1 %ptr, ptr align 1 %add.ptr13, i64 %sub, i1 false)
  %4 = load i64, ptr %read_buff_off_, align 8
  %add15 = add i64 %4, %sub
  store i64 %add15, ptr %read_buff_off_, align 8
  br label %return

if.end:                                           ; preds = %entry
  %vtable = load ptr, ptr %this, align 8
  %vfn = getelementptr inbounds i8, ptr %vtable, i64 16
  %5 = load ptr, ptr %vfn, align 8
  %call16 = tail call noundef zeroext i1 %5(ptr noundef nonnull align 8 dereferenceable(88) %this)
  br i1 %call16, label %if.end18, label %return

if.end18:                                         ; preds = %if.end
  %cmp21 = icmp ult i64 %size, 4096
  tail call void @llvm.memset.p0.i64(ptr noundef nonnull align 8 dereferenceable(16) %read_buff_off_, i8 0, i64 16, i1 false)
  %sock_ = getelementptr inbounds i8, ptr %this, i64 8
  %6 = load i32, ptr %sock_, align 8
  br i1 %cmp21, label %if.then22, label %while.body.i.i15

if.then22:                                        ; preds = %if.end18
  %read_buff_23 = getelementptr inbounds i8, ptr %this, i64 48
  %7 = load ptr, ptr %read_buff_23, align 8
  br label %while.body.i.i

while.body.i.i:                                   ; preds = %land.lhs.true.i.i, %if.then22
  %call.i.i.i = tail call noundef i64 @recv(i32 noundef %6, ptr noundef %7, i64 noundef 4096, i32 noundef 0)
  %cmp.i.i = icmp slt i64 %call.i.i.i, 0
  br i1 %cmp.i.i, label %land.lhs.true.i.i, label %_ZN7httplib6detail11read_socketEiPvmi.exit

land.lhs.true.i.i:                                ; preds = %while.body.i.i
  %call1.i.i = tail call ptr @__errno_location() #42
  %8 = load i32, ptr %call1.i.i, align 4
  %cmp2.i.i = icmp eq i32 %8, 4
  br i1 %cmp2.i.i, label %while.body.i.i, label %return, !llvm.loop !20

_ZN7httplib6detail11read_socketEiPvmi.exit:       ; preds = %while.body.i.i
  %cmp26 = icmp eq i64 %call.i.i.i, 0
  br i1 %cmp26, label %return, label %if.else28

if.else28:                                        ; preds = %_ZN7httplib6detail11read_socketEiPvmi.exit
  %cmp29.not = icmp sgt i64 %call.i.i.i, %.sroa.speculated
  %9 = load ptr, ptr %read_buff_23, align 8
  br i1 %cmp29.not, label %if.else33, label %if.then30

if.then30:                                        ; preds = %if.else28
  tail call void @llvm.memcpy.p0.p0.i64(ptr align 1 %ptr, ptr align 1 %9, i64 %call.i.i.i, i1 false)
  br label %return

if.else33:                                        ; preds = %if.else28
  tail call void @llvm.memcpy.p0.p0.i64(ptr align 1 %ptr, ptr align 1 %9, i64 %.sroa.speculated, i1 false)
  store i64 %.sroa.speculated, ptr %read_buff_off_, align 8
  store i64 %call.i.i.i, ptr %read_buff_content_size_, align 8
  br label %return

while.body.i.i15:                                 ; preds = %if.end18, %land.lhs.true.i.i18
  %call.i.i.i16 = tail call noundef i64 @recv(i32 noundef %6, ptr noundef %ptr, i64 noundef %.sroa.speculated, i32 noundef 0)
  %cmp.i.i17 = icmp slt i64 %call.i.i.i16, 0
  br i1 %cmp.i.i17, label %land.lhs.true.i.i18, label %return

land.lhs.true.i.i18:                              ; preds = %while.body.i.i15
  %call1.i.i19 = tail call ptr @__errno_location() #42
  %10 = load i32, ptr %call1.i.i19, align 4
  %cmp2.i.i20 = icmp eq i32 %10, 4
  br i1 %cmp2.i.i20, label %while.body.i.i15, label %return, !llvm.loop !20

return:                                           ; preds = %land.lhs.true.i.i18, %while.body.i.i15, %land.lhs.true.i.i, %_ZN7httplib6detail11read_socketEiPvmi.exit, %if.end, %if.else33, %if.then30, %if.else, %if.then6
  %retval.0 = phi i64 [ %.sroa.speculated, %if.then6 ], [ %sub, %if.else ], [ %call.i.i.i, %if.then30 ], [ %size, %if.else33 ], [ -1, %if.end ], [ 0, %_ZN7httplib6detail11read_socketEiPvmi.exit ], [ %call.i.i.i, %land.lhs.true.i.i ], [ %call.i.i.i16, %while.body.i.i15 ], [ %call.i.i.i16, %land.lhs.true.i.i18 ]
  ret i64 %retval.0
}